target datalayout = "e-m:e-p270:32:32-p271:32:32-p272:64:64-i64:64-i128:128-f80:128-n8:16:32:64-S128"
target triple = "x86_64-pc-linux-gnu"

%"class.net::QuicFlowController" = type { ptr, i32, i32, i64, i64, i64, i64, i64, i64, i64, i8, i64, %"class.net::QuicTime" }
%"class.net::QuicTime" = type { i64 }

; Function Attrs: inlinehint mustprogress nounwind uwtable
define linkonce_odr void @_ZN3net8QuicTimeC2El(ptr noundef nonnull align 8 dereferenceable(8) %0, i64 noundef %1) unnamed_addr #7 comdat align 2 {
  %3 = alloca ptr, align 8
  %4 = alloca i64, align 8
  store ptr %0, ptr %3, align 8, !tbaa !200
  store i64 %1, ptr %4, align 8, !tbaa !14
  %5 = load ptr, ptr %3, align 8
  %6 = getelementptr inbounds nuw %"class.net::QuicTime", ptr %5, i32 0, i32 0
  %7 = load i64, ptr %4, align 8, !tbaa !14
  store i64 %7, ptr %6, align 8, !tbaa !202
  ret void
}

; Function Attrs: inlinehint mustprogress uwtable
define linkonce_odr i64 @_ZN3net8QuicTime4ZeroEv() #1 comdat align 2 {
  %1 = alloca %"class.net::QuicTime", align 8
  call void @_ZN3net8QuicTimeC2El(ptr noundef nonnull align 8 dereferenceable(8) %1, i64 noundef 0)
  %2 = getelementptr inbounds nuw %"class.net::QuicTime", ptr %1, i32 0, i32 0
  %3 = load i64, ptr %2, align 8
  ret i64 %3
}

; Function Attrs: mustprogress uwtable
define void @_ZN3net18QuicFlowControllerC2EPNS_14QuicConnectionEjNS_11PerspectiveEmmb(ptr noundef nonnull align 8 dereferenceable(96) %0, ptr noundef %1, i32 noundef %2, i32 noundef %3, i64 noundef %4, i64 noundef %5, i1 noundef zeroext %6) unnamed_addr #0 align 2 {
  %8 = alloca ptr, align 8
  %9 = alloca ptr, align 8
  %10 = alloca i32, align 4
  %11 = alloca i32, align 4
  %12 = alloca i64, align 8
  %13 = alloca i64, align 8
  %14 = alloca i8, align 1
  store ptr %0, ptr %8, align 8, !tbaa !3
  store ptr %1, ptr %9, align 8, !tbaa !8
  store i32 %2, ptr %10, align 4, !tbaa !10
  store i32 %3, ptr %11, align 4, !tbaa !12
  store i64 %4, ptr %12, align 8, !tbaa !14
  store i64 %5, ptr %13, align 8, !tbaa !14
  %15 = zext i1 %6 to i8
  store i8 %15, ptr %14, align 1, !tbaa !16
  %16 = load ptr, ptr %8, align 8
  %17 = getelementptr inbounds nuw %"class.net::QuicFlowController", ptr %16, i32 0, i32 0
  %18 = load ptr, ptr %9, align 8, !tbaa !8
  store ptr %18, ptr %17, align 8, !tbaa !18
  %19 = getelementptr inbounds nuw %"class.net::QuicFlowController", ptr %16, i32 0, i32 1
  %20 = load i32, ptr %10, align 4, !tbaa !10
  store i32 %20, ptr %19, align 8, !tbaa !21
  %21 = getelementptr inbounds nuw %"class.net::QuicFlowController", ptr %16, i32 0, i32 2
  %22 = load i32, ptr %11, align 4, !tbaa !12
  store i32 %22, ptr %21, align 4, !tbaa !22
  %23 = getelementptr inbounds nuw %"class.net::QuicFlowController", ptr %16, i32 0, i32 3
  store i64 0, ptr %23, align 8, !tbaa !23
  %24 = getelementptr inbounds nuw %"class.net::QuicFlowController", ptr %16, i32 0, i32 4
  %25 = load i64, ptr %12, align 8, !tbaa !14
  store i64 %25, ptr %24, align 8, !tbaa !24
  %26 = getelementptr inbounds nuw %"class.net::QuicFlowController", ptr %16, i32 0, i32 5
  store i64 0, ptr %26, align 8, !tbaa !25
  %27 = getelementptr inbounds nuw %"class.net::QuicFlowController", ptr %16, i32 0, i32 6
  store i64 0, ptr %27, align 8, !tbaa !26
  %28 = getelementptr inbounds nuw %"class.net::QuicFlowController", ptr %16, i32 0, i32 7
  %29 = load i64, ptr %13, align 8, !tbaa !14
  store i64 %29, ptr %28, align 8, !tbaa !27
  %30 = getelementptr inbounds nuw %"class.net::QuicFlowController", ptr %16, i32 0, i32 8
  %31 = load i64, ptr %13, align 8, !tbaa !14
  store i64 %31, ptr %30, align 8, !tbaa !28
  %32 = getelementptr inbounds nuw %"class.net::QuicFlowController", ptr %16, i32 0, i32 10
  %33 = load i8, ptr %14, align 1, !tbaa !16, !range !29, !noundef !30
  %34 = trunc i8 %33 to i1
  %35 = zext i1 %34 to i8
  store i8 %35, ptr %32, align 8, !tbaa !31
  %36 = getelementptr inbounds nuw %"class.net::QuicFlowController", ptr %16, i32 0, i32 11
  store i64 0, ptr %36, align 8, !tbaa !32
  %37 = getelementptr inbounds nuw %"class.net::QuicFlowController", ptr %16, i32 0, i32 12
  %38 = call i64 @_ZN3net8QuicTime4ZeroEv()
  %39 = getelementptr inbounds nuw %"class.net::QuicTime", ptr %37, i32 0, i32 0
  store i64 %38, ptr %39, align 8
  %40 = getelementptr inbounds nuw %"class.net::QuicFlowController", ptr %16, i32 0, i32 1
  %41 = load i32, ptr %40, align 8, !tbaa !21
  %42 = icmp eq i32 %41, 0
  %43 = select i1 %42, i64 25165824, i64 16777216
  %44 = getelementptr inbounds nuw %"class.net::QuicFlowController", ptr %16, i32 0, i32 9
  store i64 %43, ptr %44, align 8, !tbaa !33
  ret void
}