; Function Attrs: mustprogress nofree norecurse nosync nounwind willreturn memory(argmem: write) uwtable
define void @_ZN3net18QuicFlowControllerC2EPNS_14QuicConnectionEjNS_11PerspectiveEmmb(ptr noundef nonnull writeonly align 8 captures(none) dereferenceable(96) initializes((0, 73), (80, 96)) %0, ptr noundef %1, i32 noundef %2, i32 noundef %3, i64 noundef %4, i64 noundef %5, i1 noundef zeroext %6) unnamed_addr #0 align 2 {
  %8 = zext i1 %6 to i8
  store ptr %1, ptr %0, align 8, !tbaa !3
  %9 = getelementptr inbounds nuw i8, ptr %0, i64 8
  store i32 %2, ptr %9, align 8, !tbaa !14
  %10 = getelementptr inbounds nuw i8, ptr %0, i64 12
  store i32 %3, ptr %10, align 4, !tbaa !15
  %11 = getelementptr inbounds nuw i8, ptr %0, i64 16
  store i64 0, ptr %11, align 8, !tbaa !16
  %12 = getelementptr inbounds nuw i8, ptr %0, i64 24
  store i64 %4, ptr %12, align 8, !tbaa !17
  %13 = getelementptr inbounds nuw i8, ptr %0, i64 32
  %14 = getelementptr inbounds nuw i8, ptr %0, i64 48
  tail call void @llvm.memset.p0.i64(ptr noundef nonnull align 8 dereferenceable(16) %13, i8 0, i64 16, i1 false)
  store i64 %5, ptr %14, align 8, !tbaa !18
  %15 = getelementptr inbounds nuw i8, ptr %0, i64 56
  store i64 %5, ptr %15, align 8, !tbaa !19
  %16 = getelementptr inbounds nuw i8, ptr %0, i64 72
  store i8 %8, ptr %16, align 8, !tbaa !20
  %17 = getelementptr inbounds nuw i8, ptr %0, i64 80
  %18 = icmp eq i32 %2, 0
  %19 = select i1 %18, i64 25165824, i64 16777216
  %20 = getelementptr inbounds nuw i8, ptr %0, i64 64
  tail call void @llvm.memset.p0.i64(ptr noundef nonnull align 8 dereferenceable(16) %17, i8 0, i64 16, i1 false)
  store i64 %19, ptr %20, align 8, !tbaa !21
  ret void
}